(lp0
(lp1
I0
aI3
aI5
aI0
aI8
aI2
aI7
aI6
aI4
aa(lp2
I2
aI9
aI0
aI4
aI1
aI0
aI3
aI8
aI0
aa(lp3
I8
aI6
aI4
aI7
aI0
aI3
aI0
aI9
aI0
aa(lp4
I2
aI1
aI8
aI0
aI0
aI0
aI0
aI4
aI3
aa(lp5
I7
aI3
aI9
aI8
aI0
aI4
aI0
aI5
aI2
aa(lp6
I0
aI4
aI0
aI2
aI3
aI0
aI9
aI7
aI0
aa(lp7
I4
aI0
aI6
aI3
aI5
aI9
aI8
aI0
aI0
aa(lp8
I5
aI7
aI1
aI0
aI2
aI8
aI9
aI0
aI0
aa(lp9
I0
aI0
aI9
aI4
aI1
aI7
aI5
aI2
aI6
aa.