(lp0
I0
aI3
aI5
aI2
aI9
aI0
aI8
aI6
aI4
aI0
aI8
aI2
aI4
aI1
aI0
aI7
aI0
aI3
aI7
aI6
aI4
aI3
aI8
aI0
aI0
aI9
aI0
aI2
aI1
aI8
aI7
aI3
aI9
aI0
aI4
aI0
aI0
aI0
aI0
aI8
aI0
aI4
aI2
aI3
aI0
aI0
aI4
aI3
aI0
aI5
aI2
aI9
aI7
aI0
aI4
aI0
aI6
aI5
aI7
aI1
aI0
aI0
aI9
aI3
aI5
aI9
aI0
aI2
aI8
aI4
aI1
aI7
aI8
aI0
aI0
aI9
aI0
aI0
aI5
aI2
aI6
a.